; Function Attrs: mustprogress uwtable
define dso_local void @_ZNK4Json5Value3getEPKcRKS0_(ptr dead_on_unwind noalias writable sret(%"class.Json::Value") align 8 %0, ptr nocapture noundef nonnull readonly align 8 dereferenceable(40) %1, ptr noundef %2, ptr nocapture noundef nonnull readonly align 8 dereferenceable(40) %3) local_unnamed_addr #10 align 2 personality ptr @__gxx_personality_v0 {
  %5 = tail call i64 @strlen(ptr noundef nonnull dereferenceable(1) %2) #36
  %6 = getelementptr inbounds i8, ptr %2, i64 %5
  tail call void @llvm.experimental.noalias.scope.decl(metadata !18)
  %7 = tail call noundef ptr @_ZNK4Json5Value4findEPKcS2_(ptr noundef nonnull align 8 dereferenceable(40) %1, ptr noundef %2, ptr noundef %6), !noalias !18
  %.not.i = icmp eq ptr %7, null
  %8 = select i1 %.not.i, ptr %3, ptr %7
  %9 = getelementptr inbounds i8, ptr %0, i64 16
  store ptr null, ptr %9, align 8, !alias.scope !18
  invoke void @_ZN4Json5Value10dupPayloadERKS0_(ptr noundef nonnull align 8 dereferenceable(40) %0, ptr noundef nonnull align 8 dereferenceable(40) %8)
          to label %10 unwind label %13

10:                                               ; preds = %4
  %11 = getelementptr inbounds i8, ptr %8, i64 16
  %12 = invoke noundef nonnull align 8 dereferenceable(8) ptr @_ZN4Json5Value8CommentsaSERKS1_(ptr noundef nonnull align 8 dereferenceable(8) %9, ptr noundef nonnull align 8 dereferenceable(8) %11)
          to label %_ZNK4Json5Value3getEPKcS2_RKS0_.exit unwind label %13

13:                                               ; preds = %10, %4
  %14 = landingpad { ptr, i32 }
          cleanup
  tail call void @_ZN4Json5Value8CommentsD2Ev(ptr noundef nonnull align 8 dereferenceable(8) %9) #35
  resume { ptr, i32 } %14

_ZNK4Json5Value3getEPKcS2_RKS0_.exit:             ; preds = %10
  %15 = getelementptr inbounds i8, ptr %8, i64 24
  %16 = load i64, ptr %15, align 8
  %17 = getelementptr inbounds i8, ptr %0, i64 24
  store i64 %16, ptr %17, align 8, !alias.scope !18
  %18 = getelementptr inbounds i8, ptr %8, i64 32
  %19 = load i64, ptr %18, align 8
  %20 = getelementptr inbounds i8, ptr %0, i64 32
  store i64 %19, ptr %20, align 8, !alias.scope !18
  ret void
}